target datalayout = "e-m:e-p270:32:32-p271:32:32-p272:64:64-i64:64-i128:128-f80:128-n8:16:32:64-S128"
target triple = "x86_64-unknown-linux-gnu"

%"class.llvh::DenseMap" = type <{ ptr, i32, i32, i32, [4 x i8] }>
%"class.hermes::parser::JSLexer" = type { ptr, ptr, i32, %"class.std::unique_ptr", ptr, ptr, i8, i8, i8, i8, [4 x i8], %"class.hermes::parser::Token", %"class.llvh::SMLoc", ptr, ptr, ptr, i8, %"class.llvh::SmallString", %"class.llvh::SmallString", [46 x ptr], %"class.std::vector", %"class.std::vector.2" }
%"class.std::unique_ptr" = type { %"struct.std::__uniq_ptr_data" }
%"struct.std::__uniq_ptr_data" = type { %"class.std::__uniq_ptr_impl" }
%"class.std::__uniq_ptr_impl" = type { %"class.std::tuple" }
%"class.std::tuple" = type { %"struct.std::_Tuple_impl" }
%"struct.std::_Tuple_impl" = type { %"struct.std::_Head_base.1" }
%"struct.std::_Head_base.1" = type { ptr }
%"class.hermes::parser::Token" = type <{ i32, [4 x i8], %"class.llvh::SMRange", double, ptr, ptr, ptr, ptr, i8, [7 x i8] }>
%"class.llvh::SMRange" = type { %"class.llvh::SMLoc", %"class.llvh::SMLoc" }
%"class.llvh::SMLoc" = type { ptr }
%"class.llvh::SmallString" = type { %"class.llvh::SmallVector" }
%"class.llvh::SmallVector" = type { %"class.llvh::SmallVectorImpl", %"struct.llvh::SmallVectorStorage" }
%"class.llvh::SmallVectorImpl" = type { %"class.llvh::SmallVectorTemplateBase" }
%"class.llvh::SmallVectorTemplateBase" = type { %"class.llvh::SmallVectorTemplateCommon" }
%"class.llvh::SmallVectorTemplateCommon" = type { %"class.llvh::SmallVectorBase" }
%"class.llvh::SmallVectorBase" = type { ptr, i32, i32 }
%"struct.llvh::SmallVectorStorage" = type { [256 x %"struct.llvh::AlignedCharArrayUnion"] }
%"struct.llvh::AlignedCharArrayUnion" = type { %"struct.llvh::AlignedCharArray" }
%"struct.llvh::AlignedCharArray" = type { [1 x i8] }
%"class.std::vector" = type { %"struct.std::_Vector_base" }
%"struct.std::_Vector_base" = type { %"struct.std::_Vector_base<hermes::parser::StoredComment, std::allocator<hermes::parser::StoredComment>>::_Vector_impl" }
%"struct.std::_Vector_base<hermes::parser::StoredComment, std::allocator<hermes::parser::StoredComment>>::_Vector_impl" = type { %"struct.std::_Vector_base<hermes::parser::StoredComment, std::allocator<hermes::parser::StoredComment>>::_Vector_impl_data" }
%"struct.std::_Vector_base<hermes::parser::StoredComment, std::allocator<hermes::parser::StoredComment>>::_Vector_impl_data" = type { ptr, ptr, ptr }
%"class.std::vector.2" = type { %"struct.std::_Vector_base.3" }
%"struct.std::_Vector_base.3" = type { %"struct.std::_Vector_base<hermes::parser::StoredToken, std::allocator<hermes::parser::StoredToken>>::_Vector_impl" }
%"struct.std::_Vector_base<hermes::parser::StoredToken, std::allocator<hermes::parser::StoredToken>>::_Vector_impl" = type { %"struct.std::_Vector_base<hermes::parser::StoredToken, std::allocator<hermes::parser::StoredToken>>::_Vector_impl_data" }
%"struct.std::_Vector_base<hermes::parser::StoredToken, std::allocator<hermes::parser::StoredToken>>::_Vector_impl_data" = type { ptr, ptr, ptr }
%"class.llvh::StringRef" = type { ptr, i64 }
%"class.hermes::SourceErrorManager" = type { %"class.llvh::SourceMgr", %"struct.hermes::SourceErrorOutputOptions", %"class.std::shared_ptr", %"struct.hermes::SourceErrorManager::FindLineCache", %"struct.hermes::StringSetVector", [4 x i32], i32, i8, %"class.llvh::SmallBitVector", %"class.llvh::SmallBitVector", %"class.hermes::OptValue", i8, [7 x i8], %"class.llvh::DenseMap.20", %"class.llvh::DenseMap.20", i32, ptr, %"class.std::vector.23", %"class.std::vector.28" }
%"class.llvh::SourceMgr" = type { %"class.std::vector.7", %"class.std::map", i32, %"class.std::vector.15", ptr, ptr }
%"class.std::vector.7" = type { %"struct.std::_Vector_base.8" }
%"struct.std::_Vector_base.8" = type { %"struct.std::_Vector_base<llvh::SourceMgr::SrcBuffer, std::allocator<llvh::SourceMgr::SrcBuffer>>::_Vector_impl" }
%"struct.std::_Vector_base<llvh::SourceMgr::SrcBuffer, std::allocator<llvh::SourceMgr::SrcBuffer>>::_Vector_impl" = type { %"struct.std::_Vector_base<llvh::SourceMgr::SrcBuffer, std::allocator<llvh::SourceMgr::SrcBuffer>>::_Vector_impl_data" }
%"struct.std::_Vector_base<llvh::SourceMgr::SrcBuffer, std::allocator<llvh::SourceMgr::SrcBuffer>>::_Vector_impl_data" = type { ptr, ptr, ptr }
%"class.std::map" = type { %"class.std::_Rb_tree" }
%"class.std::_Rb_tree" = type { %"struct.std::_Rb_tree<const char *, std::pair<const char *const, unsigned int>, std::_Select1st<std::pair<const char *const, unsigned int>>, std::less<const char *>>::_Rb_tree_impl" }
%"struct.std::_Rb_tree<const char *, std::pair<const char *const, unsigned int>, std::_Select1st<std::pair<const char *const, unsigned int>>, std::less<const char *>>::_Rb_tree_impl" = type { %"struct.std::_Rb_tree_key_compare", %"struct.std::_Rb_tree_header" }
%"struct.std::_Rb_tree_key_compare" = type { %"struct.std::less" }
%"struct.std::less" = type { i8 }
%"struct.std::_Rb_tree_header" = type { %"struct.std::_Rb_tree_node_base", i64 }
%"struct.std::_Rb_tree_node_base" = type { i32, ptr, ptr, ptr }
%"class.std::vector.15" = type { %"struct.std::_Vector_base.16" }
%"struct.std::_Vector_base.16" = type { %"struct.std::_Vector_base<std::__cxx11::basic_string<char>, std::allocator<std::__cxx11::basic_string<char>>>::_Vector_impl" }
%"struct.std::_Vector_base<std::__cxx11::basic_string<char>, std::allocator<std::__cxx11::basic_string<char>>>::_Vector_impl" = type { %"struct.std::_Vector_base<std::__cxx11::basic_string<char>, std::allocator<std::__cxx11::basic_string<char>>>::_Vector_impl_data" }
%"struct.std::_Vector_base<std::__cxx11::basic_string<char>, std::allocator<std::__cxx11::basic_string<char>>>::_Vector_impl_data" = type { ptr, ptr, ptr }
%"struct.hermes::SourceErrorOutputOptions" = type { i8, i64 }
%"class.std::shared_ptr" = type { %"class.std::__shared_ptr" }
%"class.std::__shared_ptr" = type { ptr, %"class.std::__shared_count" }
%"class.std::__shared_count" = type { ptr }
%"struct.hermes::SourceErrorManager::FindLineCache" = type { i32, i32, %"class.llvh::StringRef", %"class.llvh::StringRef" }
%"struct.hermes::StringSetVector" = type { %"class.std::deque", %"class.llvh::DenseMap" }
%"class.std::deque" = type { %"class.std::_Deque_base" }
%"class.std::_Deque_base" = type { %"struct.std::_Deque_base<std::__cxx11::basic_string<char>, std::allocator<std::__cxx11::basic_string<char>>>::_Deque_impl" }
%"struct.std::_Deque_base<std::__cxx11::basic_string<char>, std::allocator<std::__cxx11::basic_string<char>>>::_Deque_impl" = type { %"struct.std::_Deque_base<std::__cxx11::basic_string<char>, std::allocator<std::__cxx11::basic_string<char>>>::_Deque_impl_data" }
%"struct.std::_Deque_base<std::__cxx11::basic_string<char>, std::allocator<std::__cxx11::basic_string<char>>>::_Deque_impl_data" = type { ptr, i64, %"struct.std::_Deque_iterator", %"struct.std::_Deque_iterator" }
%"struct.std::_Deque_iterator" = type { ptr, ptr, ptr, ptr }
%"class.llvh::SmallBitVector" = type { i64 }
%"class.hermes::OptValue" = type <{ i32, i8, [3 x i8] }>
%"class.llvh::DenseMap.20" = type <{ ptr, i32, i32, i32, [4 x i8] }>
%"class.std::vector.23" = type { %"struct.std::_Vector_base.24" }
%"struct.std::_Vector_base.24" = type { %"struct.std::_Vector_base<hermes::SourceErrorManager::BufferedMessage, std::allocator<hermes::SourceErrorManager::BufferedMessage>>::_Vector_impl" }
%"struct.std::_Vector_base<hermes::SourceErrorManager::BufferedMessage, std::allocator<hermes::SourceErrorManager::BufferedMessage>>::_Vector_impl" = type { %"struct.std::_Vector_base<hermes::SourceErrorManager::BufferedMessage, std::allocator<hermes::SourceErrorManager::BufferedMessage>>::_Vector_impl_data" }
%"struct.std::_Vector_base<hermes::SourceErrorManager::BufferedMessage, std::allocator<hermes::SourceErrorManager::BufferedMessage>>::_Vector_impl_data" = type { ptr, ptr, ptr }
%"class.std::vector.28" = type { %"struct.std::_Vector_base.29" }
%"struct.std::_Vector_base.29" = type { %"struct.std::_Vector_base<hermes::SourceErrorManager::MessageData, std::allocator<hermes::SourceErrorManager::MessageData>>::_Vector_impl" }
%"struct.std::_Vector_base<hermes::SourceErrorManager::MessageData, std::allocator<hermes::SourceErrorManager::MessageData>>::_Vector_impl" = type { %"struct.std::_Vector_base<hermes::SourceErrorManager::MessageData, std::allocator<hermes::SourceErrorManager::MessageData>>::_Vector_impl_data" }
%"struct.std::_Vector_base<hermes::SourceErrorManager::MessageData, std::allocator<hermes::SourceErrorManager::MessageData>>::_Vector_impl_data" = type { ptr, ptr, ptr }
%"class.llvh::Twine" = type <{ %"union.llvh::Twine::Child", %"union.llvh::Twine::Child", i8, i8, [6 x i8] }>
%"union.llvh::Twine::Child" = type { ptr }

@.str.76 = private unnamed_addr constant [25 x i8] c"empty private identifier\00", align 1

; Function Attrs: mustprogress nounwind uwtable
define linkonce_odr hidden void @_ZN6hermes6parser7JSLexer8forceEOFEv(ptr noundef nonnull align 8 dereferenceable(1128) %this) #0 comdat align 2 {
entry:
  %this.addr = alloca ptr, align 8
  store ptr %this, ptr %this.addr, align 8
  %this1 = load ptr, ptr %this.addr, align 8
  %bufferEnd_ = getelementptr inbounds %"class.hermes::parser::JSLexer", ptr %this1, i32 0, i32 15
  %0 = load ptr, ptr %bufferEnd_, align 8
  %curCharPtr_ = getelementptr inbounds %"class.hermes::parser::JSLexer", ptr %this1, i32 0, i32 14
  store ptr %0, ptr %curCharPtr_, align 8
  ret void
}

; Function Attrs: mustprogress nounwind uwtable
define linkonce_odr hidden noundef zeroext i1 @_ZNK6hermes18SourceErrorManager19isErrorLimitReachedEv(ptr noundef nonnull align 8 dereferenceable(464) %this) #0 comdat align 2 {
entry:
  %this.addr = alloca ptr, align 8
  store ptr %this, ptr %this.addr, align 8
  %this1 = load ptr, ptr %this.addr, align 8
  %errorLimitReached_ = getelementptr inbounds %"class.hermes::SourceErrorManager", ptr %this1, i32 0, i32 7
  %0 = load i8, ptr %errorLimitReached_, align 4
  %tobool = trunc i8 %0 to i1
  ret i1 %tobool
}

; Function Attrs: mustprogress nounwind uwtable
define linkonce_odr hidden void @_ZN6hermes18SourceErrorManager5errorEN4llvh5SMLocERKNS1_5TwineENS_9SubsystemE(ptr noundef nonnull align 8 dereferenceable(464) %this, ptr %loc.coerce, ptr noundef nonnull align 8 dereferenceable(18) %msg, i32 noundef %subsystem) #0 comdat align 2 {
entry:
  %loc = alloca %"class.llvh::SMLoc", align 8
  %this.addr = alloca ptr, align 8
  %msg.addr = alloca ptr, align 8
  %subsystem.addr = alloca i32, align 4
  %agg.tmp = alloca %"class.llvh::SMLoc", align 8
  %coerce.dive = getelementptr inbounds %"class.llvh::SMLoc", ptr %loc, i32 0, i32 0
  store ptr %loc.coerce, ptr %coerce.dive, align 8
  store ptr %this, ptr %this.addr, align 8
  store ptr %msg, ptr %msg.addr, align 8
  store i32 %subsystem, ptr %subsystem.addr, align 4
  %this1 = load ptr, ptr %this.addr, align 8
  call void @llvm.memcpy.p0.p0.i64(ptr align 8 %agg.tmp, ptr align 8 %loc, i64 8, i1 false)
  %0 = load ptr, ptr %msg.addr, align 8
  %1 = load i32, ptr %subsystem.addr, align 4
  %coerce.dive2 = getelementptr inbounds %"class.llvh::SMLoc", ptr %agg.tmp, i32 0, i32 0
  %2 = load ptr, ptr %coerce.dive2, align 8
  call void @_ZN6hermes18SourceErrorManager7messageENS0_8DiagKindEN4llvh5SMLocERKNS2_5TwineENS_9SubsystemE(ptr noundef nonnull align 8 dereferenceable(464) %this1, i32 noundef 0, ptr %2, ptr noundef nonnull align 8 dereferenceable(18) %0, i32 noundef %1)
  ret void
}

; Function Attrs: mustprogress nounwind uwtable
define linkonce_odr hidden void @_ZN4llvh5SMLocC2Ev(ptr noundef nonnull align 8 dereferenceable(8) %this) unnamed_addr #0 comdat align 2 {
entry:
  %this.addr = alloca ptr, align 8
  store ptr %this, ptr %this.addr, align 8
  %this1 = load ptr, ptr %this.addr, align 8
  %Ptr = getelementptr inbounds %"class.llvh::SMLoc", ptr %this1, i32 0, i32 0
  store ptr null, ptr %Ptr, align 8
  ret void
}

; Function Attrs: mustprogress nounwind uwtable
define linkonce_odr hidden void @_ZN6hermes6parser5Token20setPrivateIdentifierEPNS_12UniqueStringE(ptr noundef nonnull align 8 dereferenceable(65) %this, ptr noundef %ident) #0 comdat align 2 {
entry:
  %this.addr = alloca ptr, align 8
  %ident.addr = alloca ptr, align 8
  store ptr %this, ptr %this.addr, align 8
  store ptr %ident, ptr %ident.addr, align 8
  %this1 = load ptr, ptr %this.addr, align 8
  %kind_ = getelementptr inbounds %"class.hermes::parser::Token", ptr %this1, i32 0, i32 0
  store i32 2, ptr %kind_, align 8
  %0 = load ptr, ptr %ident.addr, align 8
  %ident_ = getelementptr inbounds %"class.hermes::parser::Token", ptr %this1, i32 0, i32 4
  store ptr %0, ptr %ident_, align 8
  ret void
}

; Function Attrs: mustprogress nounwind uwtable
define linkonce_odr hidden noundef ptr @_ZNK6hermes6parser5Token22getResWordOrIdentifierEv(ptr noundef nonnull align 8 dereferenceable(65) %this) #0 comdat align 2 {
entry:
  %this.addr = alloca ptr, align 8
  store ptr %this, ptr %this.addr, align 8
  %this1 = load ptr, ptr %this.addr, align 8
  %ident_ = getelementptr inbounds %"class.hermes::parser::Token", ptr %this1, i32 0, i32 4
  %0 = load ptr, ptr %ident_, align 8
  ret ptr %0
}

; Function Attrs: mustprogress nounwind uwtable
define hidden noundef zeroext i1 @_ZN6hermes6parser7JSLexer5errorEN4llvh5SMLocERKNS2_5TwineE(ptr noundef nonnull align 8 dereferenceable(1128) %this, ptr %loc.coerce, ptr noundef nonnull align 8 dereferenceable(18) %msg) #0 align 2 {
entry:
  %retval = alloca i1, align 1
  %loc = alloca %"class.llvh::SMLoc", align 8
  %this.addr = alloca ptr, align 8
  %msg.addr = alloca ptr, align 8
  %agg.tmp = alloca %"class.llvh::SMLoc", align 8
  %coerce.dive = getelementptr inbounds %"class.llvh::SMLoc", ptr %loc, i32 0, i32 0
  store ptr %loc.coerce, ptr %coerce.dive, align 8
  store ptr %this, ptr %this.addr, align 8
  store ptr %msg, ptr %msg.addr, align 8
  %this1 = load ptr, ptr %this.addr, align 8
  %sm_ = getelementptr inbounds %"class.hermes::parser::JSLexer", ptr %this1, i32 0, i32 0
  %0 = load ptr, ptr %sm_, align 8
  call void @llvm.memcpy.p0.p0.i64(ptr align 8 %agg.tmp, ptr align 8 %loc, i64 8, i1 false)
  %1 = load ptr, ptr %msg.addr, align 8
  %coerce.dive2 = getelementptr inbounds %"class.llvh::SMLoc", ptr %agg.tmp, i32 0, i32 0
  %2 = load ptr, ptr %coerce.dive2, align 8
  call void @_ZN6hermes18SourceErrorManager5errorEN4llvh5SMLocERKNS1_5TwineENS_9SubsystemE(ptr noundef nonnull align 8 dereferenceable(464) %0, ptr %2, ptr noundef nonnull align 8 dereferenceable(18) %1, i32 noundef 1)
  %sm_3 = getelementptr inbounds %"class.hermes::parser::JSLexer", ptr %this1, i32 0, i32 0
  %3 = load ptr, ptr %sm_3, align 8
  %call = call noundef zeroext i1 @_ZNK6hermes18SourceErrorManager19isErrorLimitReachedEv(ptr noundef nonnull align 8 dereferenceable(464) %3)
  br i1 %call, label %if.end, label %if.then

if.then:                                          ; preds = %entry
  store i1 true, ptr %retval, align 1
  br label %return

if.end:                                           ; preds = %entry
  call void @_ZN6hermes6parser7JSLexer8forceEOFEv(ptr noundef nonnull align 8 dereferenceable(1128) %this1)
  store i1 false, ptr %retval, align 1
  br label %return

return:                                           ; preds = %if.end, %if.then
  %4 = load i1, ptr %retval, align 1
  ret i1 %4
}

; Function Attrs: mustprogress nounwind uwtable
define linkonce_odr hidden void @_ZN4llvh5TwineC2EPKc(ptr noundef nonnull align 8 dereferenceable(18) %this, ptr noundef %Str) unnamed_addr #0 comdat align 2 {
entry:
  %this.addr = alloca ptr, align 8
  %Str.addr = alloca ptr, align 8
  store ptr %this, ptr %this.addr, align 8
  store ptr %Str, ptr %Str.addr, align 8
  %this1 = load ptr, ptr %this.addr, align 8
  %LHSKind = getelementptr inbounds %"class.llvh::Twine", ptr %this1, i32 0, i32 2
  store i8 1, ptr %LHSKind, align 8
  %RHSKind = getelementptr inbounds %"class.llvh::Twine", ptr %this1, i32 0, i32 3
  store i8 1, ptr %RHSKind, align 1
  %0 = load ptr, ptr %Str.addr, align 8
  %arrayidx = getelementptr inbounds i8, ptr %0, i64 0
  %1 = load i8, ptr %arrayidx, align 1
  %conv = sext i8 %1 to i32
  %cmp = icmp ne i32 %conv, 0
  br i1 %cmp, label %if.then, label %if.else

if.then:                                          ; preds = %entry
  %2 = load ptr, ptr %Str.addr, align 8
  %LHS2 = getelementptr inbounds %"class.llvh::Twine", ptr %this1, i32 0, i32 0
  store ptr %2, ptr %LHS2, align 8
  %LHSKind3 = getelementptr inbounds %"class.llvh::Twine", ptr %this1, i32 0, i32 2
  store i8 3, ptr %LHSKind3, align 8
  br label %if.end

if.else:                                          ; preds = %entry
  %LHSKind4 = getelementptr inbounds %"class.llvh::Twine", ptr %this1, i32 0, i32 2
  store i8 1, ptr %LHSKind4, align 8
  br label %if.end

if.end:                                           ; preds = %if.else, %if.then
  ret void
}

; Function Attrs: mustprogress nounwind uwtable
define linkonce_odr hidden ptr @_ZN4llvh5SMLoc14getFromPointerEPKc(ptr noundef %Ptr) #0 comdat align 2 {
entry:
  %retval = alloca %"class.llvh::SMLoc", align 8
  %Ptr.addr = alloca ptr, align 8
  store ptr %Ptr, ptr %Ptr.addr, align 8
  call void @_ZN4llvh5SMLocC2Ev(ptr noundef nonnull align 8 dereferenceable(8) %retval) #7
  %0 = load ptr, ptr %Ptr.addr, align 8
  %Ptr1 = getelementptr inbounds %"class.llvh::SMLoc", ptr %retval, i32 0, i32 0
  store ptr %0, ptr %Ptr1, align 8
  %coerce.dive = getelementptr inbounds %"class.llvh::SMLoc", ptr %retval, i32 0, i32 0
  %1 = load ptr, ptr %coerce.dive, align 8
  ret ptr %1
}

; Function Attrs: mustprogress nounwind uwtable
define linkonce_odr hidden noundef zeroext i1 @_ZN6hermes22isASCIIIdentifierStartEj(i32 noundef %ch) #0 comdat {
entry:
  %ch.addr = alloca i32, align 4
  store i32 %ch, ptr %ch.addr, align 4
  %0 = load i32, ptr %ch.addr, align 4
  %cmp = icmp eq i32 %0, 95
  br i1 %cmp, label %lor.end, label %lor.lhs.false

lor.lhs.false:                                    ; preds = %entry
  %1 = load i32, ptr %ch.addr, align 4
  %cmp1 = icmp eq i32 %1, 36
  br i1 %cmp1, label %lor.end, label %lor.rhs

lor.rhs:                                          ; preds = %lor.lhs.false
  %2 = load i32, ptr %ch.addr, align 4
  %or = or i32 %2, 32
  %cmp2 = icmp uge i32 %or, 97
  br i1 %cmp2, label %land.rhs, label %land.end

land.rhs:                                         ; preds = %lor.rhs
  %3 = load i32, ptr %ch.addr, align 4
  %or3 = or i32 %3, 32
  %cmp4 = icmp ule i32 %or3, 122
  br label %land.end

land.end:                                         ; preds = %land.rhs, %lor.rhs
  %4 = phi i1 [ false, %lor.rhs ], [ %cmp4, %land.rhs ]
  br label %lor.end

lor.end:                                          ; preds = %land.end, %lor.lhs.false, %entry
  %5 = phi i1 [ true, %lor.lhs.false ], [ true, %entry ], [ %4, %land.end ]
  ret i1 %5
}

; Function Attrs: mustprogress nounwind uwtable
define hidden noundef zeroext i1 @_ZN6hermes6parser7JSLexer21scanPrivateIdentifierEv(ptr noundef nonnull align 8 dereferenceable(1128) %this) #0 align 2 {
entry:
  %retval = alloca i1, align 1
  %this.addr = alloca ptr, align 8
  %start = alloca ptr, align 8
  %agg.tmp = alloca %"class.llvh::SMLoc", align 8
  %ref.tmp = alloca %"class.llvh::Twine", align 8
  store ptr %this, ptr %this.addr, align 8
  %this1 = load ptr, ptr %this.addr, align 8
  %curCharPtr_ = getelementptr inbounds %"class.hermes::parser::JSLexer", ptr %this1, i32 0, i32 14
  %0 = load ptr, ptr %curCharPtr_, align 8
  store ptr %0, ptr %start, align 8
  %curCharPtr_2 = getelementptr inbounds %"class.hermes::parser::JSLexer", ptr %this1, i32 0, i32 14
  %1 = load ptr, ptr %curCharPtr_2, align 8
  %incdec.ptr = getelementptr inbounds i8, ptr %1, i32 1
  store ptr %incdec.ptr, ptr %curCharPtr_2, align 8
  %curCharPtr_3 = getelementptr inbounds %"class.hermes::parser::JSLexer", ptr %this1, i32 0, i32 14
  %2 = load ptr, ptr %curCharPtr_3, align 8
  %3 = load i8, ptr %2, align 1
  %conv = sext i8 %3 to i32
  %call = call noundef zeroext i1 @_ZN6hermes22isASCIIIdentifierStartEj(i32 noundef %conv)
  br i1 %call, label %if.then, label %if.else

if.then:                                          ; preds = %entry
  %curCharPtr_5 = getelementptr inbounds %"class.hermes::parser::JSLexer", ptr %this1, i32 0, i32 14
  %4 = load ptr, ptr %curCharPtr_5, align 8
  call void @_ZN6hermes6parser7JSLexer22scanIdentifierFastPathILNS1_14IdentifierModeE0EEEvPKc(ptr noundef nonnull align 8 dereferenceable(1128) %this1, ptr noundef %4)
  br label %if.end12

if.else:                                          ; preds = %entry
  %call6 = call noundef zeroext i1 @_ZN6hermes6parser7JSLexer22consumeIdentifierStartEv(ptr noundef nonnull align 8 dereferenceable(1128) %this1)
  br i1 %call6, label %if.then7, label %if.else8

if.then7:                                         ; preds = %if.else
  call void @_ZN6hermes6parser7JSLexer19scanIdentifierPartsILNS1_14IdentifierModeE0EEEvv(ptr noundef nonnull align 8 dereferenceable(1128) %this1)
  br label %if.end

if.else8:                                         ; preds = %if.else
  %5 = load ptr, ptr %start, align 8
  %call9 = call ptr @_ZN4llvh5SMLoc14getFromPointerEPKc(ptr noundef %5)
  %coerce.dive = getelementptr inbounds %"class.llvh::SMLoc", ptr %agg.tmp, i32 0, i32 0
  store ptr %call9, ptr %coerce.dive, align 8
  call void @_ZN4llvh5TwineC2EPKc(ptr noundef nonnull align 8 dereferenceable(18) %ref.tmp, ptr noundef @.str.76)
  %coerce.dive10 = getelementptr inbounds %"class.llvh::SMLoc", ptr %agg.tmp, i32 0, i32 0
  %6 = load ptr, ptr %coerce.dive10, align 8
  %call11 = call noundef zeroext i1 @_ZN6hermes6parser7JSLexer5errorEN4llvh5SMLocERKNS2_5TwineE(ptr noundef nonnull align 8 dereferenceable(1128) %this1, ptr %6, ptr noundef nonnull align 8 dereferenceable(18) %ref.tmp)
  store i1 false, ptr %retval, align 1
  br label %return

if.end:                                           ; preds = %if.then7
  br label %if.end12

if.end12:                                         ; preds = %if.end, %if.then
  %token_ = getelementptr inbounds %"class.hermes::parser::JSLexer", ptr %this1, i32 0, i32 11
  %token_13 = getelementptr inbounds %"class.hermes::parser::JSLexer", ptr %this1, i32 0, i32 11
  %call14 = call noundef ptr @_ZNK6hermes6parser5Token22getResWordOrIdentifierEv(ptr noundef nonnull align 8 dereferenceable(65) %token_13)
  call void @_ZN6hermes6parser5Token20setPrivateIdentifierEPNS_12UniqueStringE(ptr noundef nonnull align 8 dereferenceable(65) %token_, ptr noundef %call14)
  store i1 true, ptr %retval, align 1
  br label %return

return:                                           ; preds = %if.end12, %if.else8
  %7 = load i1, ptr %retval, align 1
  ret i1 %7
}