; Function Attrs: mustprogress nounwind uwtable
define hidden noundef zeroext i1 @_ZN6hermes6parser7JSLexer21scanPrivateIdentifierEv(ptr noundef nonnull align 8 dereferenceable(1128) %this) local_unnamed_addr #1 align 2 {
entry:
  %ref.tmp = alloca %"class.llvh::Twine", align 8
  %curCharPtr_ = getelementptr inbounds nuw i8, ptr %this, i64 144
  %0 = load ptr, ptr %curCharPtr_, align 8
  %incdec.ptr = getelementptr inbounds nuw i8, ptr %0, i64 1
  store ptr %incdec.ptr, ptr %curCharPtr_, align 8
  %1 = load i8, ptr %incdec.ptr, align 1
  switch i8 %1, label %_ZN6hermes22isASCIIIdentifierStartEj.exit [
    i8 95, label %if.then
    i8 36, label %if.then
  ]

_ZN6hermes22isASCIIIdentifierStartEj.exit:        ; preds = %entry
  %2 = or i8 %1, 32
  %or.i = sext i8 %2 to i32
  %3 = add nsw i32 %or.i, -97
  %4 = icmp ult i32 %3, 26
  br i1 %4, label %if.then, label %if.else

if.then:                                          ; preds = %entry, %entry, %_ZN6hermes22isASCIIIdentifierStartEj.exit
  tail call void @_ZN6hermes6parser7JSLexer22scanIdentifierFastPathILNS1_14IdentifierModeE0EEEvPKc(ptr noundef nonnull align 8 dereferenceable(1128) %this, ptr noundef nonnull %incdec.ptr)
  br label %if.end12

if.else:                                          ; preds = %_ZN6hermes22isASCIIIdentifierStartEj.exit
  %call6 = tail call noundef zeroext i1 @_ZN6hermes6parser7JSLexer22consumeIdentifierStartEv(ptr noundef nonnull align 8 dereferenceable(1128) %this)
  br i1 %call6, label %if.then7, label %if.else8

if.then7:                                         ; preds = %if.else
  tail call void @_ZN6hermes6parser7JSLexer19scanIdentifierPartsILNS1_14IdentifierModeE0EEEvv(ptr noundef nonnull align 8 dereferenceable(1128) %this)
  br label %if.end12

if.else8:                                         ; preds = %if.else
  %LHSKind.i = getelementptr inbounds nuw i8, ptr %ref.tmp, i64 16
  %RHSKind.i = getelementptr inbounds nuw i8, ptr %ref.tmp, i64 17
  store i8 1, ptr %RHSKind.i, align 1
  store ptr @.str.76, ptr %ref.tmp, align 8
  store i8 3, ptr %LHSKind.i, align 8
  %5 = load ptr, ptr %this, align 8
  call void @_ZN6hermes18SourceErrorManager7messageENS0_8DiagKindEN4llvh5SMLocERKNS2_5TwineENS_9SubsystemE(ptr noundef nonnull align 8 dereferenceable(464) %5, i32 noundef 0, ptr nonnull %0, ptr noundef nonnull align 8 dereferenceable(18) %ref.tmp, i32 noundef 1) #20
  %6 = load ptr, ptr %this, align 8
  %errorLimitReached_.i.i = getelementptr inbounds nuw i8, ptr %6, i64 316
  %7 = load i8, ptr %errorLimitReached_.i.i, align 4
  %tobool.i.i = trunc i8 %7 to i1
  br i1 %tobool.i.i, label %if.end.i, label %return

if.end.i:                                         ; preds = %if.else8
  %bufferEnd_.i.i = getelementptr inbounds nuw i8, ptr %this, i64 152
  %8 = load ptr, ptr %bufferEnd_.i.i, align 8
  store ptr %8, ptr %curCharPtr_, align 8
  br label %return

if.end12:                                         ; preds = %if.then7, %if.then
  %token_ = getelementptr inbounds nuw i8, ptr %this, i64 56
  store i32 2, ptr %token_, align 8
  br label %return

return:                                           ; preds = %if.end.i, %if.else8, %if.end12
  %retval.0 = phi i1 [ true, %if.end12 ], [ false, %if.else8 ], [ false, %if.end.i ]
  ret i1 %retval.0
}